target datalayout = "e-m:e-p270:32:32-p271:32:32-p272:64:64-i64:64-i128:128-f80:128-n8:16:32:64-S128"
target triple = "x86_64-pc-linux-gnu"

%struct.rb_code_location_struct = type { %struct.rb_code_position_struct, %struct.rb_code_position_struct }
%struct.rb_code_position_struct = type { i32, i32 }
%struct.rb_iseq_struct = type { i64, i64, ptr, %union.anon.13 }
%union.anon.13 = type { %struct.anon.14 }
%struct.anon.14 = type { i64, i32 }
%struct.rb_iseq_constant_body = type { i32, i32, ptr, %struct.anon.16, %struct.rb_iseq_location_struct, %struct.iseq_insn_info, ptr, ptr, ptr, ptr, ptr, ptr, %struct.anon.17, i32, i32, i32, i32, i32, i32, i32, i32, i8, %union.anon.18, ptr, ptr, ptr, i64, ptr, i64, ptr, i64 }
%struct.anon.16 = type { %struct.anon, i32, i32, i32, i32, i32, i32, i32, ptr, ptr }
%struct.anon = type { i16, [2 x i8] }
%struct.rb_iseq_location_struct = type { i64, i64, i64, i32, i32, %struct.rb_code_location_struct }
%struct.iseq_insn_info = type { ptr, ptr, i32, ptr }
%struct.anon.17 = type { i64, i64, i64, i64, ptr }
%union.anon.18 = type { ptr }

; Function Attrs: nounwind sspstrong uwtable
define dso_local void @rb_iseq_code_location(ptr noundef %0, ptr noundef %1, ptr noundef %2, ptr noundef %3, ptr noundef %4) #0 {
  %6 = alloca ptr, align 8
  %7 = alloca ptr, align 8
  %8 = alloca ptr, align 8
  %9 = alloca ptr, align 8
  %10 = alloca ptr, align 8
  %11 = alloca ptr, align 8
  store ptr %0, ptr %6, align 8, !tbaa !7
  store ptr %1, ptr %7, align 8, !tbaa !139
  store ptr %2, ptr %8, align 8, !tbaa !139
  store ptr %3, ptr %9, align 8, !tbaa !139
  store ptr %4, ptr %10, align 8, !tbaa !139
  call void @llvm.lifetime.start.p0(i64 8, ptr %11) #24
  %12 = load ptr, ptr %6, align 8, !tbaa !7
  %13 = getelementptr inbounds nuw %struct.rb_iseq_struct, ptr %12, i32 0, i32 2
  %14 = load ptr, ptr %13, align 8, !tbaa !12
  %15 = getelementptr inbounds nuw %struct.rb_iseq_constant_body, ptr %14, i32 0, i32 4
  %16 = getelementptr inbounds nuw %struct.rb_iseq_location_struct, ptr %15, i32 0, i32 5
  store ptr %16, ptr %11, align 8, !tbaa !220
  %17 = load ptr, ptr %7, align 8, !tbaa !139
  %18 = icmp ne ptr %17, null
  br i1 %18, label %19, label %25

19:                                               ; preds = %5
  %20 = load ptr, ptr %11, align 8, !tbaa !220
  %21 = getelementptr inbounds nuw %struct.rb_code_location_struct, ptr %20, i32 0, i32 0
  %22 = getelementptr inbounds nuw %struct.rb_code_position_struct, ptr %21, i32 0, i32 0
  %23 = load i32, ptr %22, align 4, !tbaa !260
  %24 = load ptr, ptr %7, align 8, !tbaa !139
  store i32 %23, ptr %24, align 4, !tbaa !56
  br label %25

25:                                               ; preds = %19, %5
  %26 = load ptr, ptr %8, align 8, !tbaa !139
  %27 = icmp ne ptr %26, null
  br i1 %27, label %28, label %34

28:                                               ; preds = %25
  %29 = load ptr, ptr %11, align 8, !tbaa !220
  %30 = getelementptr inbounds nuw %struct.rb_code_location_struct, ptr %29, i32 0, i32 0
  %31 = getelementptr inbounds nuw %struct.rb_code_position_struct, ptr %30, i32 0, i32 1
  %32 = load i32, ptr %31, align 4, !tbaa !261
  %33 = load ptr, ptr %8, align 8, !tbaa !139
  store i32 %32, ptr %33, align 4, !tbaa !56
  br label %34

34:                                               ; preds = %28, %25
  %35 = load ptr, ptr %9, align 8, !tbaa !139
  %36 = icmp ne ptr %35, null
  br i1 %36, label %37, label %43

37:                                               ; preds = %34
  %38 = load ptr, ptr %11, align 8, !tbaa !220
  %39 = getelementptr inbounds nuw %struct.rb_code_location_struct, ptr %38, i32 0, i32 1
  %40 = getelementptr inbounds nuw %struct.rb_code_position_struct, ptr %39, i32 0, i32 0
  %41 = load i32, ptr %40, align 4, !tbaa !262
  %42 = load ptr, ptr %9, align 8, !tbaa !139
  store i32 %41, ptr %42, align 4, !tbaa !56
  br label %43

43:                                               ; preds = %37, %34
  %44 = load ptr, ptr %10, align 8, !tbaa !139
  %45 = icmp ne ptr %44, null
  br i1 %45, label %46, label %52

46:                                               ; preds = %43
  %47 = load ptr, ptr %11, align 8, !tbaa !220
  %48 = getelementptr inbounds nuw %struct.rb_code_location_struct, ptr %47, i32 0, i32 1
  %49 = getelementptr inbounds nuw %struct.rb_code_position_struct, ptr %48, i32 0, i32 1
  %50 = load i32, ptr %49, align 4, !tbaa !263
  %51 = load ptr, ptr %10, align 8, !tbaa !139
  store i32 %50, ptr %51, align 4, !tbaa !56
  br label %52

52:                                               ; preds = %46, %43
  call void @llvm.lifetime.end.p0(i64 8, ptr %11) #24
  ret void
}