; Function Attrs: mustprogress nofree norecurse nosync nounwind sspstrong willreturn memory(read, argmem: readwrite, inaccessiblemem: none) uwtable
define dso_local void @rb_iseq_code_location(ptr noundef readonly captures(none) %0, ptr noundef writeonly captures(address_is_null) %1, ptr noundef writeonly captures(address_is_null) %2, ptr noundef writeonly captures(address_is_null) %3, ptr noundef writeonly captures(address_is_null) %4) local_unnamed_addr #9 {
  %6 = getelementptr inbounds nuw i8, ptr %0, i64 16
  %7 = load ptr, ptr %6, align 8, !tbaa !7
  %.not = icmp eq ptr %1, null
  br i1 %.not, label %11, label %8

8:                                                ; preds = %5
  %9 = getelementptr inbounds nuw i8, ptr %7, i64 96
  %10 = load i32, ptr %9, align 4, !tbaa !246
  store i32 %10, ptr %1, align 4, !tbaa !136
  br label %11

11:                                               ; preds = %8, %5
  %.not16 = icmp eq ptr %2, null
  br i1 %.not16, label %15, label %12

12:                                               ; preds = %11
  %13 = getelementptr inbounds nuw i8, ptr %7, i64 100
  %14 = load i32, ptr %13, align 4, !tbaa !247
  store i32 %14, ptr %2, align 4, !tbaa !136
  br label %15

15:                                               ; preds = %12, %11
  %.not17 = icmp eq ptr %3, null
  br i1 %.not17, label %19, label %16

16:                                               ; preds = %15
  %17 = getelementptr inbounds nuw i8, ptr %7, i64 104
  %18 = load i32, ptr %17, align 4, !tbaa !248
  store i32 %18, ptr %3, align 4, !tbaa !136
  br label %19

19:                                               ; preds = %16, %15
  %.not18 = icmp eq ptr %4, null
  br i1 %.not18, label %23, label %20

20:                                               ; preds = %19
  %21 = getelementptr inbounds nuw i8, ptr %7, i64 108
  %22 = load i32, ptr %21, align 4, !tbaa !249
  store i32 %22, ptr %4, align 4, !tbaa !136
  br label %23

23:                                               ; preds = %20, %19
  ret void
}